; Function Attrs: nounwind uwtable
define hidden i32 @_cmsReadTypeBase(ptr noundef %0) local_unnamed_addr #2 {
  %2 = alloca %struct._cmsTagBase, align 4
  %3 = getelementptr inbounds i8, ptr %0, i64 280
  %4 = load ptr, ptr %3, align 8
  %5 = call i32 %4(ptr noundef %0, ptr noundef nonnull %2, i32 noundef 8, i32 noundef 1) #12
  %.not = icmp eq i32 %5, 1
  %6 = load i32, ptr %2, align 4
  %.sroa.0.0.insert.insert.i = call i32 @llvm.bswap.i32(i32 %6)
  %.0 = select i1 %.not, i32 %.sroa.0.0.insert.insert.i, i32 0
  ret i32 %.0
}